target datalayout = "e-m:e-p270:32:32-p271:32:32-p272:64:64-i64:64-i128:128-f80:128-n8:16:32:64-S128"
target triple = "x86_64-unknown-linux-gnu"

%"class.std::__cxx11::basic_string" = type { %"struct.std::__cxx11::basic_string<char>::_Alloc_hider", i64, %union.anon }
%"struct.std::__cxx11::basic_string<char>::_Alloc_hider" = type { ptr }
%union.anon = type { i64, [8 x i8] }
%"class.std::__shared_count" = type { ptr }
%"class.std::__cxx11::basic_ostringstream" = type { %"class.std::basic_ostream.base", %"class.std::__cxx11::basic_stringbuf", %"class.std::basic_ios" }
%"class.std::basic_ostream.base" = type { ptr }
%"class.std::__cxx11::basic_stringbuf" = type { %"class.std::basic_streambuf", i32, %"class.std::__cxx11::basic_string" }
%"class.std::basic_streambuf" = type { ptr, ptr, ptr, ptr, ptr, ptr, ptr, %"class.std::locale" }
%"class.std::locale" = type { ptr }
%"class.std::basic_ios" = type { %"class.std::ios_base", ptr, i8, i8, ptr, ptr, ptr, ptr }
%"class.std::ios_base" = type { ptr, i64, i64, i32, i32, i32, ptr, %"struct.std::ios_base::_Words", [8 x %"struct.std::ios_base::_Words"], i32, ptr, %"class.std::locale" }
%"struct.std::ios_base::_Words" = type { ptr, i64 }
%"class.openvdb::v11_0::points::StringAttributeHandle" = type { %"class.openvdb::v11_0::points::AttributeHandle", ptr }
%"class.openvdb::v11_0::points::AttributeHandle" = type <{ ptr, ptr, ptr, ptr, ptr, ptr, %"class.std::shared_ptr.27", i32, i32, i8, [7 x i8] }>
%"class.std::shared_ptr.27" = type { %"class.std::__shared_ptr.28" }
%"class.std::__shared_ptr.28" = type { ptr, %"class.std::__shared_count" }

@.str.1 = private unnamed_addr constant [83 x i8] c"Cannot create a StringAttributeHandle for an attribute array that is not a string.\00", align 1
@_ZTIN7openvdb5v11_09TypeErrorE = linkonce_odr constant { ptr, ptr, ptr } { ptr getelementptr inbounds (ptr, ptr @_ZTVN10__cxxabiv120__si_class_type_infoE, i64 2), ptr @_ZTSN7openvdb5v11_09TypeErrorE, ptr @_ZTIN7openvdb5v11_09ExceptionE }, comdat, align 8
@.str.10 = private unnamed_addr constant [10 x i8] c"TypeError\00", align 1
@_ZTVN7openvdb5v11_09TypeErrorE = linkonce_odr unnamed_addr constant { [5 x ptr] } { [5 x ptr] [ptr null, ptr @_ZTIN7openvdb5v11_09TypeErrorE, ptr @_ZN7openvdb5v11_09TypeErrorD2Ev, ptr @_ZN7openvdb5v11_09TypeErrorD0Ev, ptr @_ZNK7openvdb5v11_09Exception4whatEv] }, comdat, align 8

; Function Attrs: mustprogress nounwind uwtable
define linkonce_odr void @_ZN7openvdb5v11_09TypeErrorC2ERKNSt7__cxx1112basic_stringIcSt11char_traitsIcESaIcEEE(ptr noundef nonnull align 8 dereferenceable(40) %this, ptr noundef nonnull align 8 dereferenceable(32) %msg) unnamed_addr #5 comdat align 2 {
entry:
  %this.addr = alloca ptr, align 8
  %msg.addr = alloca ptr, align 8
  store ptr %this, ptr %this.addr, align 8
  store ptr %msg, ptr %msg.addr, align 8
  %this1 = load ptr, ptr %this.addr, align 8
  %0 = load ptr, ptr %msg.addr, align 8
  call void @_ZN7openvdb5v11_09ExceptionC2EPKcPKNSt7__cxx1112basic_stringIcSt11char_traitsIcESaIcEEE(ptr noundef nonnull align 8 dereferenceable(40) %this1, ptr noundef @.str.10, ptr noundef %0) #3
  store ptr getelementptr inbounds ({ [5 x ptr] }, ptr @_ZTVN7openvdb5v11_09TypeErrorE, i32 0, i32 0, i32 2), ptr %this1, align 8
  ret void
}

; Function Attrs: mustprogress uwtable
define linkonce_odr noundef zeroext i1 @_ZN7openvdb5v11_06points8isStringERKNS1_14AttributeArrayE(ptr noundef nonnull align 8 dereferenceable(24) %array) #4 comdat {
entry:
  %array.addr = alloca ptr, align 8
  store ptr %array, ptr %array.addr, align 8
  %0 = load ptr, ptr %array.addr, align 8
  %call = call noundef zeroext i1 @_ZNK7openvdb5v11_06points14AttributeArray6isTypeINS1_19TypedAttributeArrayIjNS1_11StringCodecILb0EEEEEEEbv(ptr noundef nonnull align 8 dereferenceable(24) %0)
  ret i1 %call
}

; Function Attrs: mustprogress uwtable
define void @_ZN7openvdb5v11_06points21StringAttributeHandleC2ERKNS1_14AttributeArrayERKNS0_7MetaMapEb(ptr noundef nonnull align 8 dereferenceable(88) %this, ptr noundef nonnull align 8 dereferenceable(24) %array, ptr noundef nonnull align 8 dereferenceable(56) %metadata, i1 noundef zeroext %preserveCompression) unnamed_addr #4 align 2 personality ptr @__gxx_personality_v0 {
entry:
  %this.addr = alloca ptr, align 8
  %array.addr = alloca ptr, align 8
  %metadata.addr = alloca ptr, align 8
  %preserveCompression.addr = alloca i8, align 1
  %exn.slot = alloca ptr, align 8
  %ehselector.slot = alloca i32, align 4
  %_openvdb_throw_msg = alloca %"class.std::__cxx11::basic_string", align 8
  %_openvdb_throw_os = alloca %"class.std::__cxx11::basic_ostringstream", align 8
  %ref.tmp = alloca %"class.std::__cxx11::basic_string", align 8
  store ptr %this, ptr %this.addr, align 8
  store ptr %array, ptr %array.addr, align 8
  store ptr %metadata, ptr %metadata.addr, align 8
  %frombool = zext i1 %preserveCompression to i8
  store i8 %frombool, ptr %preserveCompression.addr, align 1
  %this1 = load ptr, ptr %this.addr, align 8
  %mHandle = getelementptr inbounds %"class.openvdb::v11_0::points::StringAttributeHandle", ptr %this1, i32 0, i32 0
  %0 = load ptr, ptr %array.addr, align 8
  %1 = load i8, ptr %preserveCompression.addr, align 1
  %tobool = trunc i8 %1 to i1
  call void @_ZN7openvdb5v11_06points15AttributeHandleIjNS1_11StringCodecILb0EEEEC2ERKNS1_14AttributeArrayEb(ptr noundef nonnull align 8 dereferenceable(73) %mHandle, ptr noundef nonnull align 8 dereferenceable(24) %0, i1 noundef zeroext %tobool)
  %mMetadata = getelementptr inbounds %"class.openvdb::v11_0::points::StringAttributeHandle", ptr %this1, i32 0, i32 1
  %2 = load ptr, ptr %metadata.addr, align 8
  store ptr %2, ptr %mMetadata, align 8
  %3 = load ptr, ptr %array.addr, align 8
  %call = invoke noundef zeroext i1 @_ZN7openvdb5v11_06points8isStringERKNS1_14AttributeArrayE(ptr noundef nonnull align 8 dereferenceable(24) %3)
          to label %invoke.cont unwind label %lpad

invoke.cont:                                      ; preds = %entry
  br i1 %call, label %if.end, label %if.then

if.then:                                          ; preds = %invoke.cont
  call void @_ZNSt7__cxx1112basic_stringIcSt11char_traitsIcESaIcEEC1Ev(ptr noundef nonnull align 8 dereferenceable(32) %_openvdb_throw_msg) #3
  invoke void @_ZNSt7__cxx1119basic_ostringstreamIcSt11char_traitsIcESaIcEEC1Ev(ptr noundef nonnull align 8 dereferenceable(112) %_openvdb_throw_os)
          to label %invoke.cont3 unwind label %lpad2

invoke.cont3:                                     ; preds = %if.then
  %call6 = invoke noundef nonnull align 8 dereferenceable(8) ptr @_ZStlsISt11char_traitsIcEERSt13basic_ostreamIcT_ES5_PKc(ptr noundef nonnull align 8 dereferenceable(8) %_openvdb_throw_os, ptr noundef @.str.1)
          to label %invoke.cont5 unwind label %lpad4

invoke.cont5:                                     ; preds = %invoke.cont3
  invoke void @_ZNKSt7__cxx1119basic_ostringstreamIcSt11char_traitsIcESaIcEE3strEv(ptr sret(%"class.std::__cxx11::basic_string") align 8 %ref.tmp, ptr noundef nonnull align 8 dereferenceable(112) %_openvdb_throw_os)
          to label %invoke.cont7 unwind label %lpad4

invoke.cont7:                                     ; preds = %invoke.cont5
  %call8 = call noundef nonnull align 8 dereferenceable(32) ptr @_ZNSt7__cxx1112basic_stringIcSt11char_traitsIcESaIcEEaSEOS4_(ptr noundef nonnull align 8 dereferenceable(32) %_openvdb_throw_msg, ptr noundef nonnull align 8 dereferenceable(32) %ref.tmp) #3
  call void @_ZNSt7__cxx1112basic_stringIcSt11char_traitsIcESaIcEED1Ev(ptr noundef nonnull align 8 dereferenceable(32) %ref.tmp) #3
  call void @_ZNSt7__cxx1119basic_ostringstreamIcSt11char_traitsIcESaIcEED1Ev(ptr noundef nonnull align 8 dereferenceable(112) %_openvdb_throw_os) #3
  br label %try.cont

lpad:                                             ; preds = %entry
  %4 = landingpad { ptr, i32 }
          cleanup
  %5 = extractvalue { ptr, i32 } %4, 0
  store ptr %5, ptr %exn.slot, align 8
  %6 = extractvalue { ptr, i32 } %4, 1
  store i32 %6, ptr %ehselector.slot, align 4
  br label %ehcleanup

lpad2:                                            ; preds = %if.then
  %7 = landingpad { ptr, i32 }
          catch ptr null
  %8 = extractvalue { ptr, i32 } %7, 0
  store ptr %8, ptr %exn.slot, align 8
  %9 = extractvalue { ptr, i32 } %7, 1
  store i32 %9, ptr %ehselector.slot, align 4
  br label %catch

lpad4:                                            ; preds = %invoke.cont5, %invoke.cont3
  %10 = landingpad { ptr, i32 }
          catch ptr null
  %11 = extractvalue { ptr, i32 } %10, 0
  store ptr %11, ptr %exn.slot, align 8
  %12 = extractvalue { ptr, i32 } %10, 1
  store i32 %12, ptr %ehselector.slot, align 4
  call void @_ZNSt7__cxx1119basic_ostringstreamIcSt11char_traitsIcESaIcEED1Ev(ptr noundef nonnull align 8 dereferenceable(112) %_openvdb_throw_os) #3
  br label %catch

catch:                                            ; preds = %lpad4, %lpad2
  %exn = load ptr, ptr %exn.slot, align 8
  %13 = call ptr @__cxa_begin_catch(ptr %exn) #3
  invoke void @__cxa_end_catch()
          to label %invoke.cont10 unwind label %lpad9

invoke.cont10:                                    ; preds = %catch
  br label %try.cont

try.cont:                                         ; preds = %invoke.cont10, %invoke.cont7
  %exception = call ptr @__cxa_allocate_exception(i64 40) #3
  call void @_ZN7openvdb5v11_09TypeErrorC2ERKNSt7__cxx1112basic_stringIcSt11char_traitsIcESaIcEEE(ptr noundef nonnull align 8 dereferenceable(40) %exception, ptr noundef nonnull align 8 dereferenceable(32) %_openvdb_throw_msg) #3
  invoke void @__cxa_throw(ptr %exception, ptr @_ZTIN7openvdb5v11_09TypeErrorE, ptr @_ZN7openvdb5v11_09TypeErrorD2Ev) #19
          to label %unreachable unwind label %lpad9

lpad9:                                            ; preds = %try.cont, %catch
  %14 = landingpad { ptr, i32 }
          cleanup
  %15 = extractvalue { ptr, i32 } %14, 0
  store ptr %15, ptr %exn.slot, align 8
  %16 = extractvalue { ptr, i32 } %14, 1
  store i32 %16, ptr %ehselector.slot, align 4
  call void @_ZNSt7__cxx1112basic_stringIcSt11char_traitsIcESaIcEED1Ev(ptr noundef nonnull align 8 dereferenceable(32) %_openvdb_throw_msg) #3
  br label %ehcleanup

if.end:                                           ; preds = %invoke.cont
  ret void

ehcleanup:                                        ; preds = %lpad9, %lpad
  call void @_ZN7openvdb5v11_06points15AttributeHandleIjNS1_11StringCodecILb0EEEED2Ev(ptr noundef nonnull align 8 dereferenceable(73) %mHandle) #3
  br label %eh.resume

eh.resume:                                        ; preds = %ehcleanup
  %exn11 = load ptr, ptr %exn.slot, align 8
  %sel = load i32, ptr %ehselector.slot, align 4
  %lpad.val = insertvalue { ptr, i32 } poison, ptr %exn11, 0
  %lpad.val12 = insertvalue { ptr, i32 } %lpad.val, i32 %sel, 1
  resume { ptr, i32 } %lpad.val12

unreachable:                                      ; preds = %try.cont
  unreachable
}