; Function Attrs: mustprogress uwtable
define void @_ZN7openvdb5v11_06points21StringAttributeHandleC2ERKNS1_14AttributeArrayERKNS0_7MetaMapEb(ptr noundef nonnull align 8 dereferenceable(88) %this, ptr noundef nonnull align 8 dereferenceable(24) %array, ptr noundef nonnull align 8 dereferenceable(56) %metadata, i1 noundef zeroext %preserveCompression) unnamed_addr #3 align 2 personality ptr @__gxx_personality_v0 {
entry:
  %_openvdb_throw_msg = alloca %"class.std::__cxx11::basic_string", align 8
  %_openvdb_throw_os = alloca %"class.std::__cxx11::basic_ostringstream", align 8
  %ref.tmp = alloca %"class.std::__cxx11::basic_string", align 8
  tail call void @_ZN7openvdb5v11_06points15AttributeHandleIjNS1_11StringCodecILb0EEEEC2ERKNS1_14AttributeArrayEb(ptr noundef nonnull align 8 dereferenceable(73) %this, ptr noundef nonnull align 8 dereferenceable(24) %array, i1 noundef zeroext %preserveCompression)
  %mMetadata = getelementptr inbounds i8, ptr %this, i64 80
  store ptr %metadata, ptr %mMetadata, align 8
  %call.i4 = invoke noundef zeroext i1 @_ZNK7openvdb5v11_06points14AttributeArray6isTypeINS1_19TypedAttributeArrayIjNS1_11StringCodecILb0EEEEEEEbv(ptr noundef nonnull align 8 dereferenceable(24) %array)
          to label %invoke.cont unwind label %lpad

invoke.cont:                                      ; preds = %entry
  br i1 %call.i4, label %if.end, label %if.then

if.then:                                          ; preds = %invoke.cont
  call void @_ZNSt7__cxx1112basic_stringIcSt11char_traitsIcESaIcEEC1Ev(ptr noundef nonnull align 8 dereferenceable(32) %_openvdb_throw_msg) #23
  invoke void @_ZNSt7__cxx1119basic_ostringstreamIcSt11char_traitsIcESaIcEEC1Ev(ptr noundef nonnull align 8 dereferenceable(112) %_openvdb_throw_os)
          to label %invoke.cont3 unwind label %lpad2

invoke.cont3:                                     ; preds = %if.then
  %call6 = invoke noundef nonnull align 8 dereferenceable(8) ptr @_ZStlsISt11char_traitsIcEERSt13basic_ostreamIcT_ES5_PKc(ptr noundef nonnull align 8 dereferenceable(8) %_openvdb_throw_os, ptr noundef nonnull @.str.1)
          to label %invoke.cont5 unwind label %lpad4

invoke.cont5:                                     ; preds = %invoke.cont3
  invoke void @_ZNKSt7__cxx1119basic_ostringstreamIcSt11char_traitsIcESaIcEE3strEv(ptr nonnull sret(%"class.std::__cxx11::basic_string") align 8 %ref.tmp, ptr noundef nonnull align 8 dereferenceable(112) %_openvdb_throw_os)
          to label %invoke.cont7 unwind label %lpad4

invoke.cont7:                                     ; preds = %invoke.cont5
  %call8 = call noundef nonnull align 8 dereferenceable(32) ptr @_ZNSt7__cxx1112basic_stringIcSt11char_traitsIcESaIcEEaSEOS4_(ptr noundef nonnull align 8 dereferenceable(32) %_openvdb_throw_msg, ptr noundef nonnull align 8 dereferenceable(32) %ref.tmp) #23
  call void @_ZNSt7__cxx1112basic_stringIcSt11char_traitsIcESaIcEED1Ev(ptr noundef nonnull align 8 dereferenceable(32) %ref.tmp) #23
  call void @_ZNSt7__cxx1119basic_ostringstreamIcSt11char_traitsIcESaIcEED1Ev(ptr noundef nonnull align 8 dereferenceable(112) %_openvdb_throw_os) #23
  br label %try.cont

lpad:                                             ; preds = %entry
  %0 = landingpad { ptr, i32 }
          cleanup
  br label %ehcleanup

lpad2:                                            ; preds = %if.then
  %1 = landingpad { ptr, i32 }
          catch ptr null
  br label %catch

lpad4:                                            ; preds = %invoke.cont5, %invoke.cont3
  %2 = landingpad { ptr, i32 }
          catch ptr null
  call void @_ZNSt7__cxx1119basic_ostringstreamIcSt11char_traitsIcESaIcEED1Ev(ptr noundef nonnull align 8 dereferenceable(112) %_openvdb_throw_os) #23
  br label %catch

catch:                                            ; preds = %lpad4, %lpad2
  %.pn = phi { ptr, i32 } [ %2, %lpad4 ], [ %1, %lpad2 ]
  %exn.slot.0 = extractvalue { ptr, i32 } %.pn, 0
  %3 = call ptr @__cxa_begin_catch(ptr %exn.slot.0) #23
  invoke void @__cxa_end_catch()
          to label %try.cont unwind label %lpad9

try.cont:                                         ; preds = %catch, %invoke.cont7
  %exception = call ptr @__cxa_allocate_exception(i64 40) #23
  call void @_ZN7openvdb5v11_09ExceptionC2EPKcPKNSt7__cxx1112basic_stringIcSt11char_traitsIcESaIcEEE(ptr noundef nonnull align 8 dereferenceable(40) %exception, ptr noundef nonnull @.str.10, ptr noundef nonnull %_openvdb_throw_msg) #23
  store ptr getelementptr inbounds ({ [5 x ptr] }, ptr @_ZTVN7openvdb5v11_09TypeErrorE, i64 0, i32 0, i64 2), ptr %exception, align 8
  invoke void @__cxa_throw(ptr nonnull %exception, ptr nonnull @_ZTIN7openvdb5v11_09TypeErrorE, ptr nonnull @_ZN7openvdb5v11_09TypeErrorD2Ev) #26
          to label %unreachable unwind label %lpad9

lpad9:                                            ; preds = %try.cont, %catch
  %4 = landingpad { ptr, i32 }
          cleanup
  call void @_ZNSt7__cxx1112basic_stringIcSt11char_traitsIcESaIcEED1Ev(ptr noundef nonnull align 8 dereferenceable(32) %_openvdb_throw_msg) #23
  br label %ehcleanup

if.end:                                           ; preds = %invoke.cont
  ret void

ehcleanup:                                        ; preds = %lpad9, %lpad
  %.pn2 = phi { ptr, i32 } [ %4, %lpad9 ], [ %0, %lpad ]
  call void @_ZN7openvdb5v11_06points15AttributeHandleIjNS1_11StringCodecILb0EEEED2Ev(ptr noundef nonnull align 8 dereferenceable(73) %this) #23
  resume { ptr, i32 } %.pn2

unreachable:                                      ; preds = %try.cont
  unreachable
}